target datalayout = "e-m:e-p270:32:32-p271:32:32-p272:64:64-i64:64-i128:128-f80:128-n8:16:32:64-S128"
target triple = "x86_64-pc-linux-gnu"

%struct.commit_graft = type { %struct.object_id, i32, [0 x %struct.object_id] }
%struct.object_id = type { [32 x i8], i32 }
%struct.commit = type { %struct.object, i64, ptr, ptr, i32 }
%struct.object = type { i32, %struct.object_id }

; Function Attrs: inlinehint nounwind uwtable
define internal void @oidcpy(ptr noundef %0, ptr noundef %1) #3 {
  %3 = alloca ptr, align 8
  %4 = alloca ptr, align 8
  store ptr %0, ptr %3, align 8, !tbaa !40
  store ptr %1, ptr %4, align 8, !tbaa !40
  %5 = load ptr, ptr %3, align 8, !tbaa !40
  %6 = getelementptr inbounds nuw %struct.object_id, ptr %5, i32 0, i32 0
  %7 = getelementptr inbounds [32 x i8], ptr %6, i64 0, i64 0
  %8 = load ptr, ptr %4, align 8, !tbaa !40
  %9 = getelementptr inbounds nuw %struct.object_id, ptr %8, i32 0, i32 0
  %10 = getelementptr inbounds [32 x i8], ptr %9, i64 0, i64 0
  call void @llvm.memcpy.p0.p0.i64(ptr align 4 %7, ptr align 4 %10, i64 32, i1 false)
  %11 = load ptr, ptr %4, align 8, !tbaa !40
  %12 = getelementptr inbounds nuw %struct.object_id, ptr %11, i32 0, i32 1
  %13 = load i32, ptr %12, align 4, !tbaa !52
  %14 = load ptr, ptr %3, align 8, !tbaa !40
  %15 = getelementptr inbounds nuw %struct.object_id, ptr %14, i32 0, i32 1
  store i32 %13, ptr %15, align 4, !tbaa !52
  ret void
}

; Function Attrs: nounwind uwtable
define dso_local i32 @register_shallow(ptr noundef %0, ptr noundef %1) #0 {
  %3 = alloca ptr, align 8
  %4 = alloca ptr, align 8
  %5 = alloca ptr, align 8
  %6 = alloca ptr, align 8
  store ptr %0, ptr %3, align 8, !tbaa !4
  store ptr %1, ptr %4, align 8, !tbaa !40
  call void @llvm.lifetime.start.p0(i64 8, ptr %5) #12
  %7 = call ptr @xmalloc(i64 noundef 40)
  store ptr %7, ptr %5, align 8, !tbaa !42
  call void @llvm.lifetime.start.p0(i64 8, ptr %6) #12
  %8 = load ptr, ptr %3, align 8, !tbaa !4
  %9 = load ptr, ptr %4, align 8, !tbaa !40
  %10 = call ptr @lookup_commit(ptr noundef %8, ptr noundef %9)
  store ptr %10, ptr %6, align 8, !tbaa !44
  %11 = load ptr, ptr %5, align 8, !tbaa !42
  %12 = getelementptr inbounds nuw %struct.commit_graft, ptr %11, i32 0, i32 0
  %13 = load ptr, ptr %4, align 8, !tbaa !40
  call void @oidcpy(ptr noundef %12, ptr noundef %13)
  %14 = load ptr, ptr %5, align 8, !tbaa !42
  %15 = getelementptr inbounds nuw %struct.commit_graft, ptr %14, i32 0, i32 1
  store i32 -1, ptr %15, align 4, !tbaa !11
  %16 = load ptr, ptr %6, align 8, !tbaa !44
  %17 = icmp ne ptr %16, null
  br i1 %17, label %18, label %30

18:                                               ; preds = %2
  %19 = load ptr, ptr %6, align 8, !tbaa !44
  %20 = getelementptr inbounds nuw %struct.commit, ptr %19, i32 0, i32 0
  %21 = load i32, ptr %20, align 8
  %22 = and i32 %21, 1
  %23 = icmp ne i32 %22, 0
  br i1 %23, label %24, label %30

24:                                               ; preds = %18
  %25 = load ptr, ptr %6, align 8, !tbaa !44
  %26 = getelementptr inbounds nuw %struct.commit, ptr %25, i32 0, i32 2
  %27 = load ptr, ptr %26, align 8, !tbaa !46
  call void @free_commit_list(ptr noundef %27)
  %28 = load ptr, ptr %6, align 8, !tbaa !44
  %29 = getelementptr inbounds nuw %struct.commit, ptr %28, i32 0, i32 2
  store ptr null, ptr %29, align 8, !tbaa !46
  br label %30

30:                                               ; preds = %24, %18, %2
  %31 = load ptr, ptr %3, align 8, !tbaa !4
  %32 = load ptr, ptr %5, align 8, !tbaa !42
  %33 = call i32 @register_commit_graft(ptr noundef %31, ptr noundef %32, i32 noundef 0)
  call void @llvm.lifetime.end.p0(i64 8, ptr %6) #12
  call void @llvm.lifetime.end.p0(i64 8, ptr %5) #12
  ret i32 %33
}