; Function Attrs: nounwind uwtable
define dso_local i32 @register_shallow(ptr noundef %0, ptr noundef %1) local_unnamed_addr #0 {
  %3 = tail call ptr @xmalloc(i64 noundef 40) #15
  %4 = tail call ptr @lookup_commit(ptr noundef %0, ptr noundef %1) #15
  tail call void @llvm.memcpy.p0.p0.i64(ptr noundef nonnull align 4 dereferenceable(32) %3, ptr noundef nonnull readonly align 4 dereferenceable(32) %1, i64 32, i1 false)
  %5 = getelementptr inbounds nuw i8, ptr %1, i64 32
  %6 = load i32, ptr %5, align 4, !tbaa !37
  %7 = getelementptr inbounds nuw i8, ptr %3, i64 32
  store i32 %6, ptr %7, align 4, !tbaa !37
  %8 = getelementptr inbounds nuw i8, ptr %3, i64 36
  store i32 -1, ptr %8, align 4, !tbaa !39
  %.not = icmp eq ptr %4, null
  br i1 %.not, label %15, label %9

9:                                                ; preds = %2
  %10 = load i32, ptr %4, align 8
  %11 = and i32 %10, 1
  %.not11 = icmp eq i32 %11, 0
  br i1 %.not11, label %15, label %12

12:                                               ; preds = %9
  %13 = getelementptr inbounds nuw i8, ptr %4, i64 48
  %14 = load ptr, ptr %13, align 8, !tbaa !40
  tail call void @free_commit_list(ptr noundef %14) #15
  store ptr null, ptr %13, align 8, !tbaa !40
  br label %15

15:                                               ; preds = %12, %9, %2
  %16 = tail call i32 @register_commit_graft(ptr noundef %0, ptr noundef nonnull %3, i32 noundef 0) #15
  ret i32 %16
}